; Function Attrs: nofree norecurse nosync nounwind memory(readwrite, inaccessiblemem: none) uwtable
define internal noundef i32 @shuffle_horizontal16(ptr noundef readonly captures(none) %0, ptr noundef readonly captures(none) %1, i32 noundef %2, i32 noundef %3) #5 {
  %5 = getelementptr inbounds nuw i8, ptr %0, i64 72
  %6 = load ptr, ptr %5, align 8, !tbaa !4
  %7 = load ptr, ptr %1, align 8, !tbaa !43
  %8 = getelementptr inbounds nuw i8, ptr %1, i64 8
  %9 = load ptr, ptr %8, align 8, !tbaa !41
  %10 = getelementptr inbounds nuw i8, ptr %6, i64 36
  %11 = load i32, ptr %10, align 4, !tbaa !53
  %12 = icmp sgt i32 %11, 0
  br i1 %12, label %.lr.ph, label %._crit_edge

.lr.ph:                                           ; preds = %4
  %13 = getelementptr inbounds nuw i8, ptr %6, i64 72
  %14 = add nsw i32 %2, 1
  %15 = getelementptr inbounds nuw i8, ptr %9, i64 64
  %16 = getelementptr inbounds nuw i8, ptr %7, i64 64
  %17 = getelementptr inbounds nuw i8, ptr %6, i64 104
  %18 = load ptr, ptr %17, align 8, !tbaa !62
  %19 = getelementptr inbounds nuw i8, ptr %6, i64 56
  %wide.trip.count60 = zext nneg i32 %11 to i64
  br label %20

._crit_edge:                                      ; preds = %._crit_edge52, %4
  ret i32 0

20:                                               ; preds = %.lr.ph, %._crit_edge52
  %indvars.iv57 = phi i64 [ 0, %.lr.ph ], [ %indvars.iv.next58, %._crit_edge52 ]
  %21 = getelementptr inbounds nuw [4 x i32], ptr %13, i64 0, i64 %indvars.iv57
  %22 = load i32, ptr %21, align 4, !tbaa !48
  %23 = mul nsw i32 %22, %2
  %24 = sdiv i32 %23, %3
  %25 = mul nsw i32 %22, %14
  %26 = sdiv i32 %25, %3
  %27 = icmp slt i32 %24, %26
  br i1 %27, label %.preheader.lr.ph, label %._crit_edge52

.preheader.lr.ph:                                 ; preds = %20
  %28 = getelementptr inbounds nuw [8 x i32], ptr %16, i64 0, i64 %indvars.iv57
  %29 = load i32, ptr %28, align 4, !tbaa !48
  %30 = getelementptr inbounds nuw [8 x i32], ptr %15, i64 0, i64 %indvars.iv57
  %31 = load i32, ptr %30, align 4, !tbaa !48
  %32 = getelementptr inbounds nuw [4 x i32], ptr %19, i64 0, i64 %indvars.iv57
  %33 = load i32, ptr %32, align 4, !tbaa !48
  %34 = icmp sgt i32 %33, 0
  %35 = sext i32 %31 to i64
  %36 = lshr i64 %35, 1
  %37 = sext i32 %29 to i64
  %38 = lshr i64 %37, 1
  br i1 %34, label %.preheader.us.preheader, label %._crit_edge52

.preheader.us.preheader:                          ; preds = %.preheader.lr.ph
  %39 = getelementptr inbounds nuw [8 x ptr], ptr %9, i64 0, i64 %indvars.iv57
  %40 = load ptr, ptr %39, align 8, !tbaa !84
  %41 = mul nsw i32 %31, %24
  %42 = sext i32 %41 to i64
  %43 = getelementptr inbounds i8, ptr %40, i64 %42
  %44 = getelementptr inbounds nuw [8 x ptr], ptr %7, i64 0, i64 %indvars.iv57
  %45 = load ptr, ptr %44, align 8, !tbaa !84
  %46 = mul nsw i32 %29, %24
  %47 = sext i32 %46 to i64
  %48 = getelementptr inbounds i8, ptr %45, i64 %47
  %wide.trip.count = zext nneg i32 %33 to i64
  br label %.preheader.us

.preheader.us:                                    ; preds = %.preheader.us.preheader, %._crit_edge.us
  %.04451.us = phi i32 [ %58, %._crit_edge.us ], [ %24, %.preheader.us.preheader ]
  %.04650.us = phi ptr [ %57, %._crit_edge.us ], [ %48, %.preheader.us.preheader ]
  %.04749.us = phi ptr [ %56, %._crit_edge.us ], [ %43, %.preheader.us.preheader ]
  br label %49

49:                                               ; preds = %.preheader.us, %49
  %indvars.iv = phi i64 [ 0, %.preheader.us ], [ %indvars.iv.next, %49 ]
  %50 = getelementptr inbounds nuw i32, ptr %18, i64 %indvars.iv
  %51 = load i32, ptr %50, align 4, !tbaa !48
  %52 = sext i32 %51 to i64
  %53 = getelementptr inbounds i16, ptr %.04650.us, i64 %52
  %54 = load i16, ptr %53, align 2, !tbaa !88
  %55 = getelementptr inbounds nuw i16, ptr %.04749.us, i64 %indvars.iv
  store i16 %54, ptr %55, align 2, !tbaa !88
  %indvars.iv.next = add nuw nsw i64 %indvars.iv, 1
  %exitcond.not = icmp eq i64 %indvars.iv.next, %wide.trip.count
  br i1 %exitcond.not, label %._crit_edge.us, label %49, !llvm.loop !90

._crit_edge.us:                                   ; preds = %49
  %56 = getelementptr inbounds nuw i16, ptr %.04749.us, i64 %36
  %57 = getelementptr inbounds nuw i16, ptr %.04650.us, i64 %38
  %58 = add nsw i32 %.04451.us, 1
  %exitcond56.not = icmp eq i32 %58, %26
  br i1 %exitcond56.not, label %._crit_edge52, label %.preheader.us, !llvm.loop !91

._crit_edge52:                                    ; preds = %._crit_edge.us, %.preheader.lr.ph, %20
  %indvars.iv.next58 = add nuw nsw i64 %indvars.iv57, 1
  %exitcond61.not = icmp eq i64 %indvars.iv.next58, %wide.trip.count60
  br i1 %exitcond61.not, label %._crit_edge, label %20, !llvm.loop !92
}